target datalayout = "e-m:e-p270:32:32-p271:32:32-p272:64:64-i64:64-i128:128-f80:128-n8:16:32:64-S128"
target triple = "x86_64-pc-linux-gnu"

; Function Attrs: nounwind sspstrong willreturn memory(read) uwtable
define dso_local i32 @rb_st_locale_insensitive_strncasecmp(ptr noundef nonnull %0, ptr noundef nonnull %1, i64 noundef %2) #5 {
  %4 = alloca i32, align 4
  %5 = alloca ptr, align 8
  %6 = alloca ptr, align 8
  %7 = alloca i64, align 8
  %8 = alloca i8, align 1
  %9 = alloca i8, align 1
  %10 = alloca i64, align 8
  %11 = alloca i32, align 4
  store ptr %0, ptr %5, align 8, !tbaa !67
  store ptr %1, ptr %6, align 8, !tbaa !67
  store i64 %2, ptr %7, align 8, !tbaa !14
  call void @llvm.lifetime.start.p0(i64 1, ptr %8) #23
  call void @llvm.lifetime.start.p0(i64 1, ptr %9) #23
  call void @llvm.lifetime.start.p0(i64 8, ptr %10) #23
  store i64 0, ptr %10, align 8, !tbaa !14
  br label %12

12:                                               ; preds = %82, %3
  %13 = load i64, ptr %10, align 8, !tbaa !14
  %14 = load i64, ptr %7, align 8, !tbaa !14
  %15 = icmp ult i64 %13, %14
  br i1 %15, label %16, label %85

16:                                               ; preds = %12
  %17 = load ptr, ptr %5, align 8, !tbaa !67
  %18 = getelementptr i8, ptr %17, i32 1
  store ptr %18, ptr %5, align 8, !tbaa !67
  %19 = load i8, ptr %17, align 1, !tbaa !46
  store i8 %19, ptr %8, align 1, !tbaa !46
  %20 = load ptr, ptr %6, align 8, !tbaa !67
  %21 = getelementptr i8, ptr %20, i32 1
  store ptr %21, ptr %6, align 8, !tbaa !67
  %22 = load i8, ptr %20, align 1, !tbaa !46
  store i8 %22, ptr %9, align 1, !tbaa !46
  %23 = load i8, ptr %8, align 1, !tbaa !46
  %24 = sext i8 %23 to i32
  %25 = icmp eq i32 %24, 0
  br i1 %25, label %30, label %26

26:                                               ; preds = %16
  %27 = load i8, ptr %9, align 1, !tbaa !46
  %28 = sext i8 %27 to i32
  %29 = icmp eq i32 %28, 0
  br i1 %29, label %30, label %41

30:                                               ; preds = %26, %16
  %31 = load i8, ptr %8, align 1, !tbaa !46
  %32 = sext i8 %31 to i32
  %33 = icmp ne i32 %32, 0
  br i1 %33, label %34, label %35

34:                                               ; preds = %30
  store i32 1, ptr %4, align 4
  store i32 1, ptr %11, align 4
  br label %86

35:                                               ; preds = %30
  %36 = load i8, ptr %9, align 1, !tbaa !46
  %37 = sext i8 %36 to i32
  %38 = icmp ne i32 %37, 0
  br i1 %38, label %39, label %40

39:                                               ; preds = %35
  store i32 -1, ptr %4, align 4
  store i32 1, ptr %11, align 4
  br label %86

40:                                               ; preds = %35
  store i32 0, ptr %4, align 4
  store i32 1, ptr %11, align 4
  br label %86

41:                                               ; preds = %26
  %42 = load i8, ptr %8, align 1, !tbaa !46
  %43 = sext i8 %42 to i32
  %44 = icmp sle i32 65, %43
  br i1 %44, label %45, label %54

45:                                               ; preds = %41
  %46 = load i8, ptr %8, align 1, !tbaa !46
  %47 = sext i8 %46 to i32
  %48 = icmp sle i32 %47, 90
  br i1 %48, label %49, label %54

49:                                               ; preds = %45
  %50 = load i8, ptr %8, align 1, !tbaa !46
  %51 = sext i8 %50 to i32
  %52 = add i32 %51, 32
  %53 = trunc i32 %52 to i8
  store i8 %53, ptr %8, align 1, !tbaa !46
  br label %54

54:                                               ; preds = %49, %45, %41
  %55 = load i8, ptr %9, align 1, !tbaa !46
  %56 = sext i8 %55 to i32
  %57 = icmp sle i32 65, %56
  br i1 %57, label %58, label %67

58:                                               ; preds = %54
  %59 = load i8, ptr %9, align 1, !tbaa !46
  %60 = sext i8 %59 to i32
  %61 = icmp sle i32 %60, 90
  br i1 %61, label %62, label %67

62:                                               ; preds = %58
  %63 = load i8, ptr %9, align 1, !tbaa !46
  %64 = sext i8 %63 to i32
  %65 = add i32 %64, 32
  %66 = trunc i32 %65 to i8
  store i8 %66, ptr %9, align 1, !tbaa !46
  br label %67

67:                                               ; preds = %62, %58, %54
  %68 = load i8, ptr %8, align 1, !tbaa !46
  %69 = sext i8 %68 to i32
  %70 = load i8, ptr %9, align 1, !tbaa !46
  %71 = sext i8 %70 to i32
  %72 = icmp ne i32 %69, %71
  br i1 %72, label %73, label %81

73:                                               ; preds = %67
  %74 = load i8, ptr %8, align 1, !tbaa !46
  %75 = sext i8 %74 to i32
  %76 = load i8, ptr %9, align 1, !tbaa !46
  %77 = sext i8 %76 to i32
  %78 = icmp sgt i32 %75, %77
  br i1 %78, label %79, label %80

79:                                               ; preds = %73
  store i32 1, ptr %4, align 4
  store i32 1, ptr %11, align 4
  br label %86

80:                                               ; preds = %73
  store i32 -1, ptr %4, align 4
  store i32 1, ptr %11, align 4
  br label %86

81:                                               ; preds = %67
  br label %82

82:                                               ; preds = %81
  %83 = load i64, ptr %10, align 8, !tbaa !14
  %84 = add i64 %83, 1
  store i64 %84, ptr %10, align 8, !tbaa !14
  br label %12, !llvm.loop !70

85:                                               ; preds = %12
  store i32 0, ptr %4, align 4
  store i32 1, ptr %11, align 4
  br label %86

86:                                               ; preds = %85, %80, %79, %40, %39, %34
  call void @llvm.lifetime.end.p0(i64 8, ptr %10) #23
  call void @llvm.lifetime.end.p0(i64 1, ptr %9) #23
  call void @llvm.lifetime.end.p0(i64 1, ptr %8) #23
  %87 = load i32, ptr %4, align 4
  ret i32 %87
}