; Function Attrs: mustprogress nofree norecurse nosync nounwind sspstrong willreturn memory(argmem: read) uwtable
define dso_local range(i32 -1, 2) i32 @rb_st_locale_insensitive_strncasecmp(ptr noundef nonnull readonly captures(none) %0, ptr noundef nonnull readonly captures(none) %1, i64 noundef %2) local_unnamed_addr #3 {
  %.not46 = icmp eq i64 %2, 0
  br i1 %.not46, label %.loopexit, label %.lr.ph

4:                                                ; preds = %13
  %5 = add nuw i64 %.045, 1
  %6 = getelementptr i8, ptr %.03044, i64 1
  %7 = getelementptr i8, ptr %.03143, i64 1
  %exitcond.not = icmp eq i64 %5, %2
  br i1 %exitcond.not, label %.loopexit, label %.lr.ph, !llvm.loop !69

.lr.ph:                                           ; preds = %3, %4
  %.045 = phi i64 [ %5, %4 ], [ 0, %3 ]
  %.03044 = phi ptr [ %6, %4 ], [ %1, %3 ]
  %.03143 = phi ptr [ %7, %4 ], [ %0, %3 ]
  %8 = load i8, ptr %.03143, align 1, !tbaa !43
  %9 = load i8, ptr %.03044, align 1, !tbaa !43
  %10 = icmp eq i8 %8, 0
  %11 = icmp eq i8 %9, 0
  %or.cond = select i1 %10, i1 true, i1 %11
  br i1 %or.cond, label %12, label %13

12:                                               ; preds = %.lr.ph
  %not. = xor i1 %11, true
  %. = sext i1 %not. to i32
  %spec.select39 = select i1 %10, i32 %., i32 1
  br label %.loopexit

13:                                               ; preds = %.lr.ph
  %14 = add i8 %8, -65
  %or.cond5 = icmp ult i8 %14, 26
  %15 = or disjoint i8 %8, 32
  %spec.select = select i1 %or.cond5, i8 %15, i8 %8
  %16 = add i8 %9, -65
  %or.cond8 = icmp ult i8 %16, 26
  %17 = or disjoint i8 %9, 32
  %.027 = select i1 %or.cond8, i8 %17, i8 %9
  %.not = icmp eq i8 %spec.select, %.027
  br i1 %.not, label %4, label %18

18:                                               ; preds = %13
  %19 = icmp sgt i8 %spec.select, %.027
  %.38 = select i1 %19, i32 1, i32 -1
  br label %.loopexit

.loopexit:                                        ; preds = %4, %3, %12, %18
  %.029 = phi i32 [ %.38, %18 ], [ %spec.select39, %12 ], [ 0, %3 ], [ 0, %4 ]
  ret i32 %.029
}